target datalayout = "e-m:e-p270:32:32-p271:32:32-p272:64:64-i64:64-i128:128-f80:128-n8:16:32:64-S128"
target triple = "x86_64-pc-linux-gnu"

%struct.anon = type { i8 }
%union.anon = type { %struct.anon.2 }
%struct.anon.2 = type { i8, i8, ptr, ptr }
%struct.Type_ = type { i32, ptr, ptr, ptr, %union.anon.85, ptr, ptr, %union.anon.87 }
%union.anon.85 = type { ptr }
%union.anon.87 = type { %struct.TypeFunction }
%struct.TypeFunction = type { ptr, ptr, ptr }

@abi_arg_ignore.info = internal global { i8, i8, i8, i8, i8, %struct.anon, %union.anon } zeroinitializer, align 8
@type_void = external global ptr, align 8

; Function Attrs: nounwind uwtable
define dso_local ptr @abi_arg_ignore() #0 {
  ret ptr @abi_arg_ignore.info
}

; Function Attrs: nounwind uwtable
define dso_local ptr @c_abi_classify_return_type_default(ptr noundef %0) #0 {
  %2 = alloca ptr, align 8
  %3 = alloca ptr, align 8
  %4 = alloca ptr, align 8
  store ptr %0, ptr %4, align 8
  %5 = load ptr, ptr %4, align 8
  store ptr %5, ptr %2, align 8
  %6 = load ptr, ptr %2, align 8
  %7 = getelementptr inbounds %struct.Type_, ptr %6, i32 0, i32 1
  %8 = load ptr, ptr %7, align 8
  %9 = load ptr, ptr @type_void, align 8
  %10 = icmp eq ptr %8, %9
  br i1 %10, label %11, label %13

11:                                               ; preds = %1
  %12 = call ptr @abi_arg_ignore()
  store ptr %12, ptr %3, align 8
  br label %16

13:                                               ; preds = %1
  %14 = load ptr, ptr %4, align 8
  %15 = call ptr @c_abi_classify_argument_type_default(ptr noundef %14)
  store ptr %15, ptr %3, align 8
  br label %16

16:                                               ; preds = %13, %11
  %17 = load ptr, ptr %3, align 8
  ret ptr %17
}