; Function Attrs: nounwind uwtable
define dso_local ptr @c_abi_classify_return_type_default(ptr nocapture noundef readonly %0) local_unnamed_addr #2 {
  %2 = getelementptr inbounds i8, ptr %0, i64 8
  %3 = load ptr, ptr %2, align 8
  %4 = load ptr, ptr @type_void, align 8
  %5 = icmp eq ptr %3, %4
  br i1 %5, label %8, label %6

6:                                                ; preds = %1
  %7 = tail call ptr @c_abi_classify_argument_type_default(ptr noundef nonnull %0)
  br label %8

8:                                                ; preds = %1, %6
  %.0 = phi ptr [ %7, %6 ], [ @abi_arg_ignore.info, %1 ]
  ret ptr %.0
}